; Function Attrs: mustprogress noinline uwtable
define internal fastcc noundef i32 @_ZN3ue2L23cplCommonReachAndSimpleERKNS_8NGHolderERKNS_12_GLOBAL__N_112ranking_infoES2_S6_(ptr noundef nonnull readonly align 8 captures(none) dereferenceable(136) %0, ptr %.0.val, ptr %.8.val, ptr noundef nonnull readonly align 8 captures(none) dereferenceable(136) %1, ptr %.0.val1, ptr %.8.val3) unnamed_addr #3 {
  %3 = ptrtoint ptr %.8.val to i64
  %4 = ptrtoint ptr %.0.val to i64
  %5 = sub i64 %3, %4
  %6 = lshr exact i64 %5, 4
  %7 = trunc i64 %6 to i32
  %8 = ptrtoint ptr %.8.val3 to i64
  %9 = ptrtoint ptr %.0.val1 to i64
  %10 = sub i64 %8, %9
  %11 = lshr exact i64 %10, 4
  %12 = trunc i64 %11 to i32
  %.sroa.speculated = tail call i32 @llvm.umin.i32(i32 %12, i32 %7)
  %.not = icmp eq i32 %.sroa.speculated, 0
  br i1 %.not, label %_ZNK3ue212_GLOBAL__N_112ranking_info2atEj.exit27._crit_edge, label %.lr.ph

.lr.ph:                                           ; preds = %2
  %spec.store.select = tail call i32 @llvm.umin.i32(i32 %.sroa.speculated, i32 65535)
  %13 = ashr exact i64 %5, 4
  %14 = ashr exact i64 %10, 4
  %wide.trip.count = zext nneg i32 %spec.store.select to i64
  br label %15

15:                                               ; preds = %.lr.ph, %21
  %indvars.iv = phi i64 [ 0, %.lr.ph ], [ %indvars.iv.next, %21 ]
  %exitcond.not = icmp eq i64 %indvars.iv, %13
  br i1 %exitcond.not, label %16, label %_ZNK3ue212_GLOBAL__N_112ranking_info2atEj.exit

16:                                               ; preds = %15
  tail call void (ptr, ...) @_ZSt24__throw_out_of_range_fmtPKcz(ptr noundef nonnull @.str, i64 noundef %13, i64 noundef %13) #24
  unreachable

_ZNK3ue212_GLOBAL__N_112ranking_info2atEj.exit:   ; preds = %15
  %exitcond19.not = icmp eq i64 %indvars.iv, %14
  br i1 %exitcond19.not, label %17, label %_ZNK3ue212_GLOBAL__N_112ranking_info2atEj.exit27

17:                                               ; preds = %_ZNK3ue212_GLOBAL__N_112ranking_info2atEj.exit
  tail call void (ptr, ...) @_ZSt24__throw_out_of_range_fmtPKcz(ptr noundef nonnull @.str, i64 noundef %14, i64 noundef %14) #24
  unreachable

_ZNK3ue212_GLOBAL__N_112ranking_info2atEj.exit27: ; preds = %_ZNK3ue212_GLOBAL__N_112ranking_info2atEj.exit
  %18 = getelementptr inbounds nuw %"class.ue2::graph_detail::vertex_descriptor", ptr %.0.val, i64 %indvars.iv
  %.sroa.0.0.copyload.i = load ptr, ptr %18, align 8
  %19 = getelementptr inbounds nuw %"class.ue2::graph_detail::vertex_descriptor", ptr %.0.val1, i64 %indvars.iv
  %.sroa.0.0.copyload.i22 = load ptr, ptr %19, align 8
  %20 = tail call fastcc noundef zeroext i1 @_ZN3ue2L16cplVerticesMatchERKNS_8NGHolderENS_12graph_detail17vertex_descriptorINS_9ue2_graphIS0_NS_19NFAGraphVertexPropsENS_17NFAGraphEdgePropsEEEEES2_S9_(ptr noundef nonnull align 8 dereferenceable(136) %0, ptr %.sroa.0.0.copyload.i, ptr noundef nonnull align 8 dereferenceable(136) %1, ptr %.sroa.0.0.copyload.i22)
  br i1 %20, label %21, label %_ZNK3ue212_GLOBAL__N_112ranking_info2atEj.exit27._crit_edge.loopexit.split.loop.exit

21:                                               ; preds = %_ZNK3ue212_GLOBAL__N_112ranking_info2atEj.exit27
  %indvars.iv.next = add nuw nsw i64 %indvars.iv, 1
  %exitcond20.not = icmp eq i64 %indvars.iv.next, %wide.trip.count
  br i1 %exitcond20.not, label %_ZNK3ue212_GLOBAL__N_112ranking_info2atEj.exit27._crit_edge, label %15, !llvm.loop !291

_ZNK3ue212_GLOBAL__N_112ranking_info2atEj.exit27._crit_edge.loopexit.split.loop.exit: ; preds = %_ZNK3ue212_GLOBAL__N_112ranking_info2atEj.exit27
  %22 = trunc nuw nsw i64 %indvars.iv to i32
  br label %_ZNK3ue212_GLOBAL__N_112ranking_info2atEj.exit27._crit_edge

_ZNK3ue212_GLOBAL__N_112ranking_info2atEj.exit27._crit_edge: ; preds = %21, %_ZNK3ue212_GLOBAL__N_112ranking_info2atEj.exit27._crit_edge.loopexit.split.loop.exit, %2
  %.0.lcssa = phi i32 [ 0, %2 ], [ %22, %_ZNK3ue212_GLOBAL__N_112ranking_info2atEj.exit27._crit_edge.loopexit.split.loop.exit ], [ %spec.store.select, %21 ]
  ret i32 %.0.lcssa
}